target datalayout = "e-m:e-p270:32:32-p271:32:32-p272:64:64-i64:64-i128:128-f80:128-n8:16:32:64-S128"
target triple = "x86_64-unknown-linux-gnu"

%class.expr_delta = type { ptr, %class.ref_vector }
%class.ref_vector = type { %class.ref_vector_core }
%class.ref_vector_core = type { %class.ref_manager_wrapper, %class.ptr_vector }
%class.ref_manager_wrapper = type { ptr }
%class.ptr_vector = type { %class.vector }
%class.vector = type { ptr }
%class.obj_ref = type { ptr, ptr }
%class.expr = type { %class.ast }
%class.ast = type { i32, i24, i32, i32 }
%class.ast_manager = type { %class.reslimit, %class.small_object_allocator, %class.family_manager, %class.parray_manager, %class.dependency_manager, %class.parray_manager.12, %class.ptr_vector.15, i32, i8, %class.ast_table, %class.obj_map, %class.id_gen, %class.id_gen, ptr, ptr, ptr, ptr, ptr, i32, i8, [3 x i8], %class.u_map, ptr, i8, i8, ptr, %class.symbol, %class.obj_map.23, ptr }
%class.reslimit = type { %"struct.std::atomic", i8, i64, i64, %class.svector, %class.ptr_vector.1 }
%"struct.std::atomic" = type { %"struct.std::__atomic_base" }
%"struct.std::__atomic_base" = type { i32 }
%class.svector = type { %class.vector.0 }
%class.vector.0 = type { ptr }
%class.ptr_vector.1 = type { %class.vector.2 }
%class.vector.2 = type { ptr }
%class.small_object_allocator = type { [32 x ptr], [32 x ptr], i64 }
%class.family_manager = type { i32, %class.symbol_table, %class.svector.6 }
%class.symbol_table = type { %class.core_hashtable, %class.vector.3, %class.svector.4 }
%class.core_hashtable = type <{ ptr, i32, i32, i32, [4 x i8] }>
%class.vector.3 = type { ptr }
%class.svector.4 = type { %class.vector.5 }
%class.vector.5 = type { ptr }
%class.svector.6 = type { %class.vector.7 }
%class.vector.7 = type { ptr }
%class.parray_manager = type { ptr, ptr, %class.ptr_vector.8, %class.ptr_vector.8 }
%class.ptr_vector.8 = type { %class.vector.9 }
%class.vector.9 = type { ptr }
%class.dependency_manager = type { ptr, ptr, %class.ptr_vector.10 }
%class.ptr_vector.10 = type { %class.vector.11 }
%class.vector.11 = type { ptr }
%class.parray_manager.12 = type { ptr, ptr, %class.ptr_vector.13, %class.ptr_vector.13 }
%class.ptr_vector.13 = type { %class.vector.14 }
%class.vector.14 = type { ptr }
%class.ptr_vector.15 = type { %class.vector.16 }
%class.vector.16 = type { ptr }
%class.ast_table = type { %class.chashtable }
%class.chashtable = type { ptr, i32, i32, i32, i32, i32, i32, i32, ptr, ptr, ptr }
%class.obj_map = type { %class.core_hashtable.17 }
%class.core_hashtable.17 = type <{ ptr, i32, i32, i32, [4 x i8] }>
%class.id_gen = type { i32, %class.svector.19 }
%class.svector.19 = type { %class.vector.20 }
%class.vector.20 = type { ptr }
%class.u_map = type { %class.map }
%class.map = type { %class.table2map }
%class.table2map = type { %class.core_hashtable.21 }
%class.core_hashtable.21 = type <{ ptr, i32, i32, i32, [4 x i8] }>
%class.symbol = type { ptr }
%class.obj_map.23 = type { %class.core_hashtable.24 }
%class.core_hashtable.24 = type <{ ptr, i32, i32, i32, [4 x i8] }>
%class.quantifier = type { %class.expr, i32, i32, ptr, ptr, i32, i32, i8, i8, %class.symbol, %class.symbol, i32, i32, [0 x i8] }

; Function Attrs: mustprogress nounwind uwtable
define linkonce_odr hidden noundef i32 @_ZNK3ast8get_kindEv(ptr noundef nonnull align 4 dereferenceable(16) %this) #5 comdat align 2 {
entry:
  %this.addr = alloca ptr, align 8
  store ptr %this, ptr %this.addr, align 8
  %this1 = load ptr, ptr %this.addr, align 8
  %m_kind = getelementptr inbounds %class.ast, ptr %this1, i32 0, i32 1
  %bf.load = load i32, ptr %m_kind, align 4
  %bf.clear = and i32 %bf.load, 65535
  ret i32 %bf.clear
}

; Function Attrs: mustprogress nounwind uwtable
define linkonce_odr hidden noundef ptr @_ZNK7obj_refI4expr11ast_managerE3getEv(ptr noundef nonnull align 8 dereferenceable(16) %this) #5 comdat align 2 {
entry:
  %this.addr = alloca ptr, align 8
  store ptr %this, ptr %this.addr, align 8
  %this1 = load ptr, ptr %this.addr, align 8
  %m_obj = getelementptr inbounds %class.obj_ref, ptr %this1, i32 0, i32 0
  %0 = load ptr, ptr %m_obj, align 8
  ret ptr %0
}

; Function Attrs: mustprogress nounwind uwtable
define linkonce_odr hidden noundef ptr @_ZNK10quantifier8get_exprEv(ptr noundef nonnull align 8 dereferenceable(80) %this) #5 comdat align 2 {
entry:
  %this.addr = alloca ptr, align 8
  store ptr %this, ptr %this.addr, align 8
  %this1 = load ptr, ptr %this.addr, align 8
  %m_expr = getelementptr inbounds %class.quantifier, ptr %this1, i32 0, i32 3
  %0 = load ptr, ptr %m_expr, align 8
  ret ptr %0
}

; Function Attrs: mustprogress nounwind uwtable
define linkonce_odr hidden noundef ptr @_Z13to_quantifierP3ast(ptr noundef %n) #5 comdat {
entry:
  %n.addr = alloca ptr, align 8
  store ptr %n, ptr %n.addr, align 8
  %0 = load ptr, ptr %n.addr, align 8
  ret ptr %0
}

; Function Attrs: mustprogress nounwind uwtable
define linkonce_odr hidden noundef zeroext i1 @_Z13is_quantifierPK3ast(ptr noundef %n) #5 comdat {
entry:
  %n.addr = alloca ptr, align 8
  store ptr %n, ptr %n.addr, align 8
  %0 = load ptr, ptr %n.addr, align 8
  %call = call noundef i32 @_ZNK3ast8get_kindEv(ptr noundef nonnull align 4 dereferenceable(16) %0)
  %cmp = icmp eq i32 %call, 2
  ret i1 %cmp
}

; Function Attrs: mustprogress nounwind uwtable
define linkonce_odr hidden noundef ptr @_Z6to_appP3ast(ptr noundef %n) #5 comdat {
entry:
  %n.addr = alloca ptr, align 8
  store ptr %n, ptr %n.addr, align 8
  %0 = load ptr, ptr %n.addr, align 8
  ret ptr %0
}

; Function Attrs: mustprogress uwtable
define linkonce_odr hidden noundef zeroext i1 @_Z6is_appPK3ast(ptr noundef %n) #4 comdat {
entry:
  %n.addr = alloca ptr, align 8
  store ptr %n, ptr %n.addr, align 8
  %0 = load ptr, ptr %n.addr, align 8
  %call = call noundef i32 @_ZNK3ast8get_kindEv(ptr noundef nonnull align 4 dereferenceable(16) %0)
  %cmp = icmp eq i32 %call, 0
  ret i1 %cmp
}

; Function Attrs: mustprogress nounwind uwtable
define linkonce_odr hidden noundef ptr @_ZNK11ast_manager8mk_falseEv(ptr noundef nonnull align 8 dereferenceable(976) %this) #5 comdat align 2 {
entry:
  %this.addr = alloca ptr, align 8
  store ptr %this, ptr %this.addr, align 8
  %this1 = load ptr, ptr %this.addr, align 8
  %m_false = getelementptr inbounds %class.ast_manager, ptr %this1, i32 0, i32 16
  %0 = load ptr, ptr %m_false, align 8
  ret ptr %0
}

; Function Attrs: mustprogress nounwind uwtable
define linkonce_odr hidden noundef ptr @_ZNK11ast_manager7mk_trueEv(ptr noundef nonnull align 8 dereferenceable(976) %this) #5 comdat align 2 {
entry:
  %this.addr = alloca ptr, align 8
  store ptr %this, ptr %this.addr, align 8
  %this1 = load ptr, ptr %this.addr, align 8
  %m_true = getelementptr inbounds %class.ast_manager, ptr %this1, i32 0, i32 15
  %0 = load ptr, ptr %m_true, align 8
  ret ptr %0
}

; Function Attrs: mustprogress nounwind uwtable
define linkonce_odr hidden noundef zeroext i1 @_ZNK11ast_manager8is_falseEPK4expr(ptr noundef nonnull align 8 dereferenceable(976) %this, ptr noundef %n) #5 comdat align 2 {
entry:
  %this.addr = alloca ptr, align 8
  %n.addr = alloca ptr, align 8
  store ptr %this, ptr %this.addr, align 8
  store ptr %n, ptr %n.addr, align 8
  %this1 = load ptr, ptr %this.addr, align 8
  %0 = load ptr, ptr %n.addr, align 8
  %m_false = getelementptr inbounds %class.ast_manager, ptr %this1, i32 0, i32 16
  %1 = load ptr, ptr %m_false, align 8
  %cmp = icmp eq ptr %0, %1
  ret i1 %cmp
}

; Function Attrs: mustprogress nounwind uwtable
define linkonce_odr hidden noundef zeroext i1 @_ZNK11ast_manager7is_trueEPK4expr(ptr noundef nonnull align 8 dereferenceable(976) %this, ptr noundef %n) #5 comdat align 2 {
entry:
  %this.addr = alloca ptr, align 8
  %n.addr = alloca ptr, align 8
  store ptr %this, ptr %this.addr, align 8
  store ptr %n, ptr %n.addr, align 8
  %this1 = load ptr, ptr %this.addr, align 8
  %0 = load ptr, ptr %n.addr, align 8
  %m_true = getelementptr inbounds %class.ast_manager, ptr %this1, i32 0, i32 15
  %1 = load ptr, ptr %m_true, align 8
  %cmp = icmp eq ptr %0, %1
  ret i1 %cmp
}

; Function Attrs: mustprogress uwtable
define hidden noundef zeroext i1 @_ZN10expr_delta9delta_dfsERjP4exprR7obj_refIS1_11ast_managerE(ptr noundef nonnull align 8 dereferenceable(24) %this, ptr noundef nonnull align 4 dereferenceable(4) %n, ptr noundef %e, ptr noundef nonnull align 8 dereferenceable(16) %result) #4 align 2 {
entry:
  %retval = alloca i1, align 1
  %this.addr = alloca ptr, align 8
  %n.addr = alloca ptr, align 8
  %e.addr = alloca ptr, align 8
  %result.addr = alloca ptr, align 8
  %m = alloca ptr, align 8
  %q = alloca ptr, align 8
  store ptr %this, ptr %this.addr, align 8
  store ptr %n, ptr %n.addr, align 8
  store ptr %e, ptr %e.addr, align 8
  store ptr %result, ptr %result.addr, align 8
  %this1 = load ptr, ptr %this.addr, align 8
  %m_manager = getelementptr inbounds %class.expr_delta, ptr %this1, i32 0, i32 0
  %0 = load ptr, ptr %m_manager, align 8
  store ptr %0, ptr %m, align 8
  %1 = load ptr, ptr %m, align 8
  %2 = load ptr, ptr %e.addr, align 8
  %call = call noundef zeroext i1 @_ZNK11ast_manager7is_trueEPK4expr(ptr noundef nonnull align 8 dereferenceable(976) %1, ptr noundef %2)
  br i1 %call, label %if.then, label %lor.lhs.false

lor.lhs.false:                                    ; preds = %entry
  %3 = load ptr, ptr %m, align 8
  %4 = load ptr, ptr %e.addr, align 8
  %call2 = call noundef zeroext i1 @_ZNK11ast_manager8is_falseEPK4expr(ptr noundef nonnull align 8 dereferenceable(976) %3, ptr noundef %4)
  br i1 %call2, label %if.then, label %if.end

if.then:                                          ; preds = %lor.lhs.false, %entry
  store i1 false, ptr %retval, align 1
  br label %return

if.end:                                           ; preds = %lor.lhs.false
  %5 = load ptr, ptr %n.addr, align 8
  %6 = load i32, ptr %5, align 4
  %cmp = icmp eq i32 %6, 0
  br i1 %cmp, label %land.lhs.true, label %if.else

land.lhs.true:                                    ; preds = %if.end
  %7 = load ptr, ptr %m, align 8
  %8 = load ptr, ptr %e.addr, align 8
  %call3 = call noundef zeroext i1 @_ZNK11ast_manager7is_boolEPK4expr(ptr noundef nonnull align 8 dereferenceable(976) %7, ptr noundef %8)
  br i1 %call3, label %if.then4, label %if.else

if.then4:                                         ; preds = %land.lhs.true
  %9 = load ptr, ptr %m, align 8
  %call5 = call noundef ptr @_ZNK11ast_manager7mk_trueEv(ptr noundef nonnull align 8 dereferenceable(976) %9)
  %10 = load ptr, ptr %result.addr, align 8
  %call6 = call noundef nonnull align 8 dereferenceable(16) ptr @_ZN7obj_refI4expr11ast_managerEaSEPS0_(ptr noundef nonnull align 8 dereferenceable(16) %10, ptr noundef %call5)
  store i1 true, ptr %retval, align 1
  br label %return

if.else:                                          ; preds = %land.lhs.true, %if.end
  %11 = load ptr, ptr %n.addr, align 8
  %12 = load i32, ptr %11, align 4
  %cmp7 = icmp eq i32 %12, 1
  br i1 %cmp7, label %land.lhs.true8, label %if.else13

land.lhs.true8:                                   ; preds = %if.else
  %13 = load ptr, ptr %m, align 8
  %14 = load ptr, ptr %e.addr, align 8
  %call9 = call noundef zeroext i1 @_ZNK11ast_manager7is_boolEPK4expr(ptr noundef nonnull align 8 dereferenceable(976) %13, ptr noundef %14)
  br i1 %call9, label %if.then10, label %if.else13

if.then10:                                        ; preds = %land.lhs.true8
  %15 = load ptr, ptr %m, align 8
  %call11 = call noundef ptr @_ZNK11ast_manager8mk_falseEv(ptr noundef nonnull align 8 dereferenceable(976) %15)
  %16 = load ptr, ptr %result.addr, align 8
  %call12 = call noundef nonnull align 8 dereferenceable(16) ptr @_ZN7obj_refI4expr11ast_managerEaSEPS0_(ptr noundef nonnull align 8 dereferenceable(16) %16, ptr noundef %call11)
  store i1 true, ptr %retval, align 1
  br label %return

if.else13:                                        ; preds = %land.lhs.true8, %if.else
  %17 = load ptr, ptr %e.addr, align 8
  %call14 = call noundef zeroext i1 @_Z6is_appPK3ast(ptr noundef %17)
  br i1 %call14, label %if.then15, label %if.else21

if.then15:                                        ; preds = %if.else13
  %18 = load ptr, ptr %m, align 8
  %19 = load ptr, ptr %e.addr, align 8
  %call16 = call noundef zeroext i1 @_ZNK11ast_manager7is_boolEPK4expr(ptr noundef nonnull align 8 dereferenceable(976) %18, ptr noundef %19)
  br i1 %call16, label %if.then17, label %if.end18

if.then17:                                        ; preds = %if.then15
  %20 = load ptr, ptr %n.addr, align 8
  %21 = load i32, ptr %20, align 4
  %sub = sub i32 %21, 2
  store i32 %sub, ptr %20, align 4
  br label %if.end18

if.end18:                                         ; preds = %if.then17, %if.then15
  %22 = load ptr, ptr %n.addr, align 8
  %23 = load ptr, ptr %e.addr, align 8
  %call19 = call noundef ptr @_Z6to_appP3ast(ptr noundef %23)
  %24 = load ptr, ptr %result.addr, align 8
  %call20 = call noundef zeroext i1 @_ZN10expr_delta9delta_dfsERjP3appR7obj_refI4expr11ast_managerE(ptr noundef nonnull align 8 dereferenceable(24) %this1, ptr noundef nonnull align 4 dereferenceable(4) %22, ptr noundef %call19, ptr noundef nonnull align 8 dereferenceable(16) %24)
  store i1 %call20, ptr %retval, align 1
  br label %return

if.else21:                                        ; preds = %if.else13
  %25 = load ptr, ptr %e.addr, align 8
  %call22 = call noundef zeroext i1 @_Z13is_quantifierPK3ast(ptr noundef %25)
  br i1 %call22, label %if.then23, label %if.end33

if.then23:                                        ; preds = %if.else21
  %26 = load ptr, ptr %n.addr, align 8
  %27 = load i32, ptr %26, align 4
  %sub24 = sub i32 %27, 2
  store i32 %sub24, ptr %26, align 4
  %28 = load ptr, ptr %e.addr, align 8
  %call25 = call noundef ptr @_Z13to_quantifierP3ast(ptr noundef %28)
  store ptr %call25, ptr %q, align 8
  %29 = load ptr, ptr %n.addr, align 8
  %30 = load ptr, ptr %q, align 8
  %call26 = call noundef ptr @_ZNK10quantifier8get_exprEv(ptr noundef nonnull align 8 dereferenceable(80) %30)
  %31 = load ptr, ptr %result.addr, align 8
  %call27 = call noundef zeroext i1 @_ZN10expr_delta9delta_dfsERjP4exprR7obj_refIS1_11ast_managerE(ptr noundef nonnull align 8 dereferenceable(24) %this1, ptr noundef nonnull align 4 dereferenceable(4) %29, ptr noundef %call26, ptr noundef nonnull align 8 dereferenceable(16) %31)
  br i1 %call27, label %if.then28, label %if.else32

if.then28:                                        ; preds = %if.then23
  %32 = load ptr, ptr %m, align 8
  %33 = load ptr, ptr %q, align 8
  %34 = load ptr, ptr %result.addr, align 8
  %call29 = call noundef ptr @_ZNK7obj_refI4expr11ast_managerE3getEv(ptr noundef nonnull align 8 dereferenceable(16) %34)
  %call30 = call noundef ptr @_ZN11ast_manager17update_quantifierEP10quantifierP4expr(ptr noundef nonnull align 8 dereferenceable(976) %32, ptr noundef %33, ptr noundef %call29)
  %35 = load ptr, ptr %result.addr, align 8
  %call31 = call noundef nonnull align 8 dereferenceable(16) ptr @_ZN7obj_refI4expr11ast_managerEaSEPS0_(ptr noundef nonnull align 8 dereferenceable(16) %35, ptr noundef %call30)
  store i1 true, ptr %retval, align 1
  br label %return

if.else32:                                        ; preds = %if.then23
  store i1 false, ptr %retval, align 1
  br label %return

if.end33:                                         ; preds = %if.else21
  br label %if.end34

if.end34:                                         ; preds = %if.end33
  br label %if.end35

if.end35:                                         ; preds = %if.end34
  br label %if.end36

if.end36:                                         ; preds = %if.end35
  store i1 false, ptr %retval, align 1
  br label %return

return:                                           ; preds = %if.end36, %if.else32, %if.then28, %if.end18, %if.then10, %if.then4, %if.then
  %36 = load i1, ptr %retval, align 1
  ret i1 %36
}