; Function Attrs: mustprogress uwtable
define hidden noundef zeroext i1 @_ZN10expr_delta9delta_dfsERjP4exprR7obj_refIS1_11ast_managerE(ptr nocapture noundef nonnull readonly align 8 dereferenceable(24) %this, ptr nocapture noundef nonnull align 4 dereferenceable(4) %n, ptr noundef %e, ptr noundef nonnull align 8 dereferenceable(16) %result) local_unnamed_addr #4 align 2 {
entry:
  %0 = load ptr, ptr %this, align 8
  %m_true.i = getelementptr inbounds i8, ptr %0, i64 856
  %1 = load ptr, ptr %m_true.i, align 8
  %cmp.i = icmp eq ptr %1, %e
  br i1 %cmp.i, label %return, label %lor.lhs.false

lor.lhs.false:                                    ; preds = %entry
  %m_false.i = getelementptr inbounds i8, ptr %0, i64 864
  %2 = load ptr, ptr %m_false.i, align 8
  %cmp.i27 = icmp eq ptr %2, %e
  br i1 %cmp.i27, label %return, label %if.end

if.end:                                           ; preds = %lor.lhs.false
  %3 = load i32, ptr %n, align 4
  %cmp = icmp eq i32 %3, 0
  br i1 %cmp, label %land.lhs.true, label %if.else

land.lhs.true:                                    ; preds = %if.end
  %call3 = tail call noundef zeroext i1 @_ZNK11ast_manager7is_boolEPK4expr(ptr noundef nonnull align 8 dereferenceable(976) %0, ptr noundef %e)
  br i1 %call3, label %if.then4, label %if.elsethread-pre-split

if.then4:                                         ; preds = %land.lhs.true
  %4 = load ptr, ptr %m_true.i, align 8
  %tobool.not.i = icmp eq ptr %4, null
  br i1 %tobool.not.i, label %if.end.i, label %_ZN11ast_manager7inc_refEP3ast.exit.i

_ZN11ast_manager7inc_refEP3ast.exit.i:            ; preds = %if.then4
  %m_ref_count.i.i.i = getelementptr inbounds i8, ptr %4, i64 8
  %5 = load i32, ptr %m_ref_count.i.i.i, align 4
  %inc.i.i.i = add i32 %5, 1
  store i32 %inc.i.i.i, ptr %m_ref_count.i.i.i, align 4
  br label %if.end.i

if.end.i:                                         ; preds = %_ZN11ast_manager7inc_refEP3ast.exit.i, %if.then4
  %6 = load ptr, ptr %result, align 8
  %tobool.not.i3.i = icmp eq ptr %6, null
  br i1 %tobool.not.i3.i, label %_ZN7obj_refI4expr11ast_managerEaSEPS0_.exit, label %if.then.i.i.i

if.then.i.i.i:                                    ; preds = %if.end.i
  %m_manager.i.i = getelementptr inbounds i8, ptr %result, i64 8
  %7 = load ptr, ptr %m_manager.i.i, align 8
  %m_ref_count.i.i.i.i = getelementptr inbounds i8, ptr %6, i64 8
  %8 = load i32, ptr %m_ref_count.i.i.i.i, align 4
  %dec.i.i.i.i = add i32 %8, -1
  store i32 %dec.i.i.i.i, ptr %m_ref_count.i.i.i.i, align 4
  %cmp.i.i.i = icmp eq i32 %dec.i.i.i.i, 0
  br i1 %cmp.i.i.i, label %if.then2.i.i.i, label %_ZN7obj_refI4expr11ast_managerEaSEPS0_.exit

if.then2.i.i.i:                                   ; preds = %if.then.i.i.i
  tail call void @_ZN11ast_manager11delete_nodeEP3ast(ptr noundef nonnull align 8 dereferenceable(976) %7, ptr noundef nonnull %6)
  br label %_ZN7obj_refI4expr11ast_managerEaSEPS0_.exit

_ZN7obj_refI4expr11ast_managerEaSEPS0_.exit:      ; preds = %if.end.i, %if.then.i.i.i, %if.then2.i.i.i
  store ptr %4, ptr %result, align 8
  br label %return

if.elsethread-pre-split:                          ; preds = %land.lhs.true
  %.pr = load i32, ptr %n, align 4
  br label %if.else

if.else:                                          ; preds = %if.elsethread-pre-split, %if.end
  %9 = phi i32 [ %.pr, %if.elsethread-pre-split ], [ %3, %if.end ]
  %cmp7 = icmp eq i32 %9, 1
  br i1 %cmp7, label %land.lhs.true8, label %if.else13

land.lhs.true8:                                   ; preds = %if.else
  %call9 = tail call noundef zeroext i1 @_ZNK11ast_manager7is_boolEPK4expr(ptr noundef nonnull align 8 dereferenceable(976) %0, ptr noundef %e)
  br i1 %call9, label %if.then10, label %if.else13

if.then10:                                        ; preds = %land.lhs.true8
  %10 = load ptr, ptr %m_false.i, align 8
  %tobool.not.i30 = icmp eq ptr %10, null
  br i1 %tobool.not.i30, label %if.end.i34, label %_ZN11ast_manager7inc_refEP3ast.exit.i31

_ZN11ast_manager7inc_refEP3ast.exit.i31:          ; preds = %if.then10
  %m_ref_count.i.i.i32 = getelementptr inbounds i8, ptr %10, i64 8
  %11 = load i32, ptr %m_ref_count.i.i.i32, align 4
  %inc.i.i.i33 = add i32 %11, 1
  store i32 %inc.i.i.i33, ptr %m_ref_count.i.i.i32, align 4
  br label %if.end.i34

if.end.i34:                                       ; preds = %_ZN11ast_manager7inc_refEP3ast.exit.i31, %if.then10
  %12 = load ptr, ptr %result, align 8
  %tobool.not.i3.i35 = icmp eq ptr %12, null
  br i1 %tobool.not.i3.i35, label %_ZN7obj_refI4expr11ast_managerEaSEPS0_.exit42, label %if.then.i.i.i36

if.then.i.i.i36:                                  ; preds = %if.end.i34
  %m_manager.i.i37 = getelementptr inbounds i8, ptr %result, i64 8
  %13 = load ptr, ptr %m_manager.i.i37, align 8
  %m_ref_count.i.i.i.i38 = getelementptr inbounds i8, ptr %12, i64 8
  %14 = load i32, ptr %m_ref_count.i.i.i.i38, align 4
  %dec.i.i.i.i39 = add i32 %14, -1
  store i32 %dec.i.i.i.i39, ptr %m_ref_count.i.i.i.i38, align 4
  %cmp.i.i.i40 = icmp eq i32 %dec.i.i.i.i39, 0
  br i1 %cmp.i.i.i40, label %if.then2.i.i.i41, label %_ZN7obj_refI4expr11ast_managerEaSEPS0_.exit42

if.then2.i.i.i41:                                 ; preds = %if.then.i.i.i36
  tail call void @_ZN11ast_manager11delete_nodeEP3ast(ptr noundef nonnull align 8 dereferenceable(976) %13, ptr noundef nonnull %12)
  br label %_ZN7obj_refI4expr11ast_managerEaSEPS0_.exit42

_ZN7obj_refI4expr11ast_managerEaSEPS0_.exit42:    ; preds = %if.end.i34, %if.then.i.i.i36, %if.then2.i.i.i41
  store ptr %10, ptr %result, align 8
  br label %return

if.else13:                                        ; preds = %land.lhs.true8, %if.else
  %m_kind.i.i = getelementptr inbounds i8, ptr %e, i64 4
  %bf.load.i.i = load i32, ptr %m_kind.i.i, align 4
  %trunc = trunc i32 %bf.load.i.i to i16
  switch i16 %trunc, label %return [
    i16 0, label %if.then15
    i16 2, label %if.then23
  ]

if.then15:                                        ; preds = %if.else13
  %call16 = tail call noundef zeroext i1 @_ZNK11ast_manager7is_boolEPK4expr(ptr noundef nonnull align 8 dereferenceable(976) %0, ptr noundef nonnull %e)
  br i1 %call16, label %if.then17, label %if.end18

if.then17:                                        ; preds = %if.then15
  %15 = load i32, ptr %n, align 4
  %sub = add i32 %15, -2
  store i32 %sub, ptr %n, align 4
  br label %if.end18

if.end18:                                         ; preds = %if.then17, %if.then15
  %call20 = tail call noundef zeroext i1 @_ZN10expr_delta9delta_dfsERjP3appR7obj_refI4expr11ast_managerE(ptr noundef nonnull align 8 dereferenceable(24) %this, ptr noundef nonnull align 4 dereferenceable(4) %n, ptr noundef nonnull %e, ptr noundef nonnull align 8 dereferenceable(16) %result)
  br label %return

if.then23:                                        ; preds = %if.else13
  %16 = load i32, ptr %n, align 4
  %sub24 = add i32 %16, -2
  store i32 %sub24, ptr %n, align 4
  %m_expr.i = getelementptr inbounds i8, ptr %e, i64 24
  %17 = load ptr, ptr %m_expr.i, align 8
  %call27 = tail call noundef zeroext i1 @_ZN10expr_delta9delta_dfsERjP4exprR7obj_refIS1_11ast_managerE(ptr noundef nonnull align 8 dereferenceable(24) %this, ptr noundef nonnull align 4 dereferenceable(4) %n, ptr noundef %17, ptr noundef nonnull align 8 dereferenceable(16) %result)
  br i1 %call27, label %if.then28, label %return

if.then28:                                        ; preds = %if.then23
  %18 = load ptr, ptr %result, align 8
  %call30 = tail call noundef ptr @_ZN11ast_manager17update_quantifierEP10quantifierP4expr(ptr noundef nonnull align 8 dereferenceable(976) %0, ptr noundef nonnull %e, ptr noundef %18)
  %call31 = tail call noundef nonnull align 8 dereferenceable(16) ptr @_ZN7obj_refI4expr11ast_managerEaSEPS0_(ptr noundef nonnull align 8 dereferenceable(16) %result, ptr noundef %call30)
  br label %return

return:                                           ; preds = %if.else13, %if.then23, %entry, %lor.lhs.false, %if.then28, %if.end18, %_ZN7obj_refI4expr11ast_managerEaSEPS0_.exit42, %_ZN7obj_refI4expr11ast_managerEaSEPS0_.exit
  %retval.0 = phi i1 [ true, %_ZN7obj_refI4expr11ast_managerEaSEPS0_.exit ], [ true, %_ZN7obj_refI4expr11ast_managerEaSEPS0_.exit42 ], [ %call20, %if.end18 ], [ true, %if.then28 ], [ false, %lor.lhs.false ], [ false, %entry ], [ false, %if.then23 ], [ false, %if.else13 ]
  ret i1 %retval.0
}